target datalayout = "e-m:e-p270:32:32-p271:32:32-p272:64:64-i64:64-i128:128-f80:128-n8:16:32:64-S128"
target triple = "x86_64-pc-linux-gnu"

%struct._ir_hashtab = type { ptr, i32, i32, i32, i32 }
%struct._ir_addrtab_bucket = type { i64, i32, i32 }

; Function Attrs: nounwind uwtable
define hidden i32 @ir_addrtab_find(ptr noundef %0, i64 noundef %1) #0 {
  %3 = alloca i32, align 4
  %4 = alloca ptr, align 8
  %5 = alloca i64, align 8
  %6 = alloca ptr, align 8
  %7 = alloca i32, align 4
  %8 = alloca ptr, align 8
  store ptr %0, ptr %4, align 8
  store i64 %1, ptr %5, align 8
  %9 = load ptr, ptr %4, align 8
  %10 = getelementptr inbounds %struct._ir_hashtab, ptr %9, i32 0, i32 0
  %11 = load ptr, ptr %10, align 8
  store ptr %11, ptr %6, align 8
  %12 = load ptr, ptr %6, align 8
  %13 = load i64, ptr %5, align 8
  %14 = load ptr, ptr %4, align 8
  %15 = getelementptr inbounds %struct._ir_hashtab, ptr %14, i32 0, i32 1
  %16 = load i32, ptr %15, align 8
  %17 = zext i32 %16 to i64
  %18 = or i64 %13, %17
  %19 = trunc i64 %18 to i32
  %20 = sext i32 %19 to i64
  %21 = getelementptr inbounds i32, ptr %12, i64 %20
  %22 = load i32, ptr %21, align 4
  store i32 %22, ptr %7, align 4
  br label %23

23:                                               ; preds = %40, %2
  %24 = load i32, ptr %7, align 4
  %25 = icmp ne i32 %24, -1
  br i1 %25, label %26, label %44

26:                                               ; preds = %23
  %27 = load ptr, ptr %6, align 8
  %28 = load i32, ptr %7, align 4
  %29 = zext i32 %28 to i64
  %30 = getelementptr inbounds i8, ptr %27, i64 %29
  store ptr %30, ptr %8, align 8
  %31 = load ptr, ptr %8, align 8
  %32 = getelementptr inbounds %struct._ir_addrtab_bucket, ptr %31, i32 0, i32 0
  %33 = load i64, ptr %32, align 8
  %34 = load i64, ptr %5, align 8
  %35 = icmp eq i64 %33, %34
  br i1 %35, label %36, label %40

36:                                               ; preds = %26
  %37 = load ptr, ptr %8, align 8
  %38 = getelementptr inbounds %struct._ir_addrtab_bucket, ptr %37, i32 0, i32 1
  %39 = load i32, ptr %38, align 8
  store i32 %39, ptr %3, align 4
  br label %45

40:                                               ; preds = %26
  %41 = load ptr, ptr %8, align 8
  %42 = getelementptr inbounds %struct._ir_addrtab_bucket, ptr %41, i32 0, i32 2
  %43 = load i32, ptr %42, align 4
  store i32 %43, ptr %7, align 4
  br label %23

44:                                               ; preds = %23
  store i32 -2147483648, ptr %3, align 4
  br label %45

45:                                               ; preds = %44, %36
  %46 = load i32, ptr %3, align 4
  ret i32 %46
}