; Function Attrs: nofree norecurse nosync nounwind memory(read, inaccessiblemem: none) uwtable
define hidden i32 @ir_addrtab_find(ptr nocapture noundef readonly %0, i64 noundef %1) local_unnamed_addr #16 {
  %3 = load ptr, ptr %0, align 8
  %4 = getelementptr inbounds i8, ptr %0, i64 8
  %5 = load i32, ptr %4, align 8
  %6 = trunc i64 %1 to i32
  %7 = or i32 %5, %6
  %8 = sext i32 %7 to i64
  %9 = getelementptr inbounds i32, ptr %3, i64 %8
  %.01112 = load i32, ptr %9, align 4
  %.not13 = icmp eq i32 %.01112, -1
  br i1 %.not13, label %.loopexit, label %.lr.ph

.lr.ph:                                           ; preds = %2, %17
  %.01114 = phi i32 [ %.011, %17 ], [ %.01112, %2 ]
  %10 = zext i32 %.01114 to i64
  %11 = getelementptr inbounds i8, ptr %3, i64 %10
  %12 = load i64, ptr %11, align 8
  %13 = icmp eq i64 %12, %1
  br i1 %13, label %14, label %17

14:                                               ; preds = %.lr.ph
  %15 = getelementptr inbounds i8, ptr %11, i64 8
  %16 = load i32, ptr %15, align 8
  br label %.loopexit

17:                                               ; preds = %.lr.ph
  %18 = getelementptr inbounds i8, ptr %11, i64 12
  %.011 = load i32, ptr %18, align 4
  %.not = icmp eq i32 %.011, -1
  br i1 %.not, label %.loopexit, label %.lr.ph

.loopexit:                                        ; preds = %17, %2, %14
  %.0 = phi i32 [ %16, %14 ], [ -2147483648, %2 ], [ -2147483648, %17 ]
  ret i32 %.0
}